(dp0
VB
p1
(dp2
VE
p3
F-0.51082562376599
sVM
p4
F-0.916290731874155
ssg3
(dp5
g1
F-0.5897149736854513
sVS
p6
F-0.8085250474669937
ssg4
(dp7
g3
F-0.33344856811948514
sg4
F-1.2603623820268226
ssg6
(dp8
g1
F-0.7211965654669841
sg6
F-0.6658631448798212
ss.